; Function Attrs: mustprogress nounwind uwtable
define hidden void @_ZN15OSThreadSampler7do_taskERK26SuspendedThreadTaskContext(ptr noundef nonnull align 8 dereferenceable(96) %0, ptr noundef nonnull align 8 dereferenceable(16) %1) unnamed_addr #0 align 2 {
  %3 = alloca %class.OSThreadSamplerCallback, align 8
  %4 = alloca %class.ThreadCrashProtection, align 8
  %5 = tail call noundef zeroext i1 @_ZN12JfrOptionSet17sample_protectionEv() #18
  br i1 %5, label %8, label %6

6:                                                ; preds = %2
  %7 = load ptr, ptr @g_assert_poison, align 8
  store i8 88, ptr %7, align 1
  tail call void (ptr, i32, ptr, ptr, ...) @_Z15report_vm_errorPKciS0_S0_z(ptr noundef nonnull @.str, i32 noundef 165, ptr noundef nonnull @.str.4, ptr noundef nonnull @.str.5) #19
  unreachable

8:                                                ; preds = %2
  %9 = tail call noundef i64 @_ZN33FastUnorderedElapsedCounterSource3nowEv() #18
  %10 = getelementptr inbounds i8, ptr %0, i64 88
  store i64 %9, ptr %10, align 8
  %11 = tail call noundef zeroext i1 @_ZN12JfrOptionSet17sample_protectionEv() #18
  br i1 %11, label %12, label %19

12:                                               ; preds = %8
  store ptr getelementptr inbounds inrange(-16, 8) (i8, ptr @_ZTV23OSThreadSamplerCallback, i64 16), ptr %3, align 8
  %13 = getelementptr inbounds i8, ptr %3, i64 8
  store ptr %0, ptr %13, align 8
  %14 = getelementptr inbounds i8, ptr %3, i64 16
  store ptr %1, ptr %14, align 8
  call void @_ZN21ThreadCrashProtectionC1Ev(ptr noundef nonnull align 8 dereferenceable(200) %4) #18
  %15 = call noundef zeroext i1 @_ZN21ThreadCrashProtection4callER23CrashProtectionCallback(ptr noundef nonnull align 8 dereferenceable(200) %4, ptr noundef nonnull align 8 dereferenceable(8) %3) #18
  br i1 %15, label %20, label %16

16:                                               ; preds = %12
  %17 = load volatile ptr, ptr getelementptr inbounds (i8, ptr @_ZN16LogTagSetMappingILN6LogTag4typeE64ELS1_0ELS1_0ELS1_0ELS1_0ELS1_0EE7_tagsetE, i64 80), align 8
  %.not = icmp eq ptr %17, null
  br i1 %.not, label %20, label %18

18:                                               ; preds = %16
  call void (ptr, ...) @_ZN7LogImplILN6LogTag4typeE64ELS1_0ELS1_0ELS1_0ELS1_0ELS1_0EE5writeILN8LogLevel4typeE5EEEvPKcz(ptr noundef nonnull @.str.6)
  br label %20

19:                                               ; preds = %8
  tail call void @_ZN15OSThreadSampler14protected_taskERK26SuspendedThreadTaskContext(ptr noundef nonnull align 8 dereferenceable(96) %0, ptr noundef nonnull align 8 dereferenceable(16) %1)
  br label %20

20:                                               ; preds = %12, %16, %18, %19
  ret void
}